target datalayout = "e-m:e-p270:32:32-p271:32:32-p272:64:64-i64:64-i128:128-f80:128-n8:16:32:64-S128"
target triple = "x86_64-unknown-linux-gnu"

%struct.dh_st = type { ptr, ptr, ptr, ptr, i32, %union.crypto_mutex_st, ptr, ptr, ptr, ptr, i32, ptr, i32, i32, %struct.crypto_ex_data_st }
%union.crypto_mutex_st = type { double, [48 x i8] }
%struct.crypto_ex_data_st = type { ptr }

@.str = private unnamed_addr constant [118 x i8] c"generated/home/dtcxzyw/WorkSpace/Projects/compilers/llvm-opt-benchmark/bench/libquic/libquic/boringssl/crypto/dh/dh.c\00", align 1

; Function Attrs: nounwind uwtable
define hidden i32 @DH_generate_parameters_ex(ptr noundef %dh, i32 noundef %prime_bits, i32 noundef %generator, ptr noundef %cb) #0 {
entry:
  %dh.addr = alloca ptr, align 8
  %prime_bits.addr = alloca i32, align 4
  %generator.addr = alloca i32, align 4
  %cb.addr = alloca ptr, align 8
  %t1 = alloca ptr, align 8
  %t2 = alloca ptr, align 8
  %g = alloca i32, align 4
  %ok = alloca i32, align 4
  %ctx = alloca ptr, align 8
  store ptr %dh, ptr %dh.addr, align 8
  store i32 %prime_bits, ptr %prime_bits.addr, align 4
  store i32 %generator, ptr %generator.addr, align 4
  store ptr %cb, ptr %cb.addr, align 8
  store i32 0, ptr %ok, align 4
  store ptr null, ptr %ctx, align 8
  %call = call ptr @BN_CTX_new()
  store ptr %call, ptr %ctx, align 8
  %0 = load ptr, ptr %ctx, align 8
  %cmp = icmp eq ptr %0, null
  br i1 %cmp, label %if.then, label %if.end

if.then:                                          ; preds = %entry
  br label %err

if.end:                                           ; preds = %entry
  %1 = load ptr, ptr %ctx, align 8
  call void @BN_CTX_start(ptr noundef %1)
  %2 = load ptr, ptr %ctx, align 8
  %call1 = call ptr @BN_CTX_get(ptr noundef %2)
  store ptr %call1, ptr %t1, align 8
  %3 = load ptr, ptr %ctx, align 8
  %call2 = call ptr @BN_CTX_get(ptr noundef %3)
  store ptr %call2, ptr %t2, align 8
  %4 = load ptr, ptr %t1, align 8
  %cmp3 = icmp eq ptr %4, null
  br i1 %cmp3, label %if.then5, label %lor.lhs.false

lor.lhs.false:                                    ; preds = %if.end
  %5 = load ptr, ptr %t2, align 8
  %cmp4 = icmp eq ptr %5, null
  br i1 %cmp4, label %if.then5, label %if.end6

if.then5:                                         ; preds = %lor.lhs.false, %if.end
  br label %err

if.end6:                                          ; preds = %lor.lhs.false
  %6 = load ptr, ptr %dh.addr, align 8
  %p = getelementptr inbounds %struct.dh_st, ptr %6, i32 0, i32 0
  %7 = load ptr, ptr %p, align 8
  %cmp7 = icmp eq ptr %7, null
  br i1 %cmp7, label %if.then8, label %if.end15

if.then8:                                         ; preds = %if.end6
  %call9 = call ptr @BN_new()
  %8 = load ptr, ptr %dh.addr, align 8
  %p10 = getelementptr inbounds %struct.dh_st, ptr %8, i32 0, i32 0
  store ptr %call9, ptr %p10, align 8
  %9 = load ptr, ptr %dh.addr, align 8
  %p11 = getelementptr inbounds %struct.dh_st, ptr %9, i32 0, i32 0
  %10 = load ptr, ptr %p11, align 8
  %cmp12 = icmp eq ptr %10, null
  br i1 %cmp12, label %if.then13, label %if.end14

if.then13:                                        ; preds = %if.then8
  br label %err

if.end14:                                         ; preds = %if.then8
  br label %if.end15

if.end15:                                         ; preds = %if.end14, %if.end6
  %11 = load ptr, ptr %dh.addr, align 8
  %g16 = getelementptr inbounds %struct.dh_st, ptr %11, i32 0, i32 1
  %12 = load ptr, ptr %g16, align 8
  %cmp17 = icmp eq ptr %12, null
  br i1 %cmp17, label %if.then18, label %if.end25

if.then18:                                        ; preds = %if.end15
  %call19 = call ptr @BN_new()
  %13 = load ptr, ptr %dh.addr, align 8
  %g20 = getelementptr inbounds %struct.dh_st, ptr %13, i32 0, i32 1
  store ptr %call19, ptr %g20, align 8
  %14 = load ptr, ptr %dh.addr, align 8
  %g21 = getelementptr inbounds %struct.dh_st, ptr %14, i32 0, i32 1
  %15 = load ptr, ptr %g21, align 8
  %cmp22 = icmp eq ptr %15, null
  br i1 %cmp22, label %if.then23, label %if.end24

if.then23:                                        ; preds = %if.then18
  br label %err

if.end24:                                         ; preds = %if.then18
  br label %if.end25

if.end25:                                         ; preds = %if.end24, %if.end15
  %16 = load i32, ptr %generator.addr, align 4
  %cmp26 = icmp sle i32 %16, 1
  br i1 %cmp26, label %if.then27, label %if.end28

if.then27:                                        ; preds = %if.end25
  call void @ERR_put_error(i32 noundef 5, i32 noundef 0, i32 noundef 100, ptr noundef @.str, i32 noundef 176)
  br label %err

if.end28:                                         ; preds = %if.end25
  %17 = load i32, ptr %generator.addr, align 4
  %cmp29 = icmp eq i32 %17, 2
  br i1 %cmp29, label %if.then30, label %if.else

if.then30:                                        ; preds = %if.end28
  %18 = load ptr, ptr %t1, align 8
  %call31 = call i32 @BN_set_word(ptr noundef %18, i64 noundef 24)
  %tobool = icmp ne i32 %call31, 0
  br i1 %tobool, label %if.end33, label %if.then32

if.then32:                                        ; preds = %if.then30
  br label %err

if.end33:                                         ; preds = %if.then30
  %19 = load ptr, ptr %t2, align 8
  %call34 = call i32 @BN_set_word(ptr noundef %19, i64 noundef 11)
  %tobool35 = icmp ne i32 %call34, 0
  br i1 %tobool35, label %if.end37, label %if.then36

if.then36:                                        ; preds = %if.end33
  br label %err

if.end37:                                         ; preds = %if.end33
  store i32 2, ptr %g, align 4
  br label %if.end58

if.else:                                          ; preds = %if.end28
  %20 = load i32, ptr %generator.addr, align 4
  %cmp38 = icmp eq i32 %20, 5
  br i1 %cmp38, label %if.then39, label %if.else48

if.then39:                                        ; preds = %if.else
  %21 = load ptr, ptr %t1, align 8
  %call40 = call i32 @BN_set_word(ptr noundef %21, i64 noundef 10)
  %tobool41 = icmp ne i32 %call40, 0
  br i1 %tobool41, label %if.end43, label %if.then42

if.then42:                                        ; preds = %if.then39
  br label %err

if.end43:                                         ; preds = %if.then39
  %22 = load ptr, ptr %t2, align 8
  %call44 = call i32 @BN_set_word(ptr noundef %22, i64 noundef 3)
  %tobool45 = icmp ne i32 %call44, 0
  br i1 %tobool45, label %if.end47, label %if.then46

if.then46:                                        ; preds = %if.end43
  br label %err

if.end47:                                         ; preds = %if.end43
  store i32 5, ptr %g, align 4
  br label %if.end57

if.else48:                                        ; preds = %if.else
  %23 = load ptr, ptr %t1, align 8
  %call49 = call i32 @BN_set_word(ptr noundef %23, i64 noundef 2)
  %tobool50 = icmp ne i32 %call49, 0
  br i1 %tobool50, label %if.end52, label %if.then51

if.then51:                                        ; preds = %if.else48
  br label %err

if.end52:                                         ; preds = %if.else48
  %24 = load ptr, ptr %t2, align 8
  %call53 = call i32 @BN_set_word(ptr noundef %24, i64 noundef 1)
  %tobool54 = icmp ne i32 %call53, 0
  br i1 %tobool54, label %if.end56, label %if.then55

if.then55:                                        ; preds = %if.end52
  br label %err

if.end56:                                         ; preds = %if.end52
  %25 = load i32, ptr %generator.addr, align 4
  store i32 %25, ptr %g, align 4
  br label %if.end57

if.end57:                                         ; preds = %if.end56, %if.end47
  br label %if.end58

if.end58:                                         ; preds = %if.end57, %if.end37
  %26 = load ptr, ptr %dh.addr, align 8
  %p59 = getelementptr inbounds %struct.dh_st, ptr %26, i32 0, i32 0
  %27 = load ptr, ptr %p59, align 8
  %28 = load i32, ptr %prime_bits.addr, align 4
  %29 = load ptr, ptr %t1, align 8
  %30 = load ptr, ptr %t2, align 8
  %31 = load ptr, ptr %cb.addr, align 8
  %call60 = call i32 @BN_generate_prime_ex(ptr noundef %27, i32 noundef %28, i32 noundef 1, ptr noundef %29, ptr noundef %30, ptr noundef %31)
  %tobool61 = icmp ne i32 %call60, 0
  br i1 %tobool61, label %if.end63, label %if.then62

if.then62:                                        ; preds = %if.end58
  br label %err

if.end63:                                         ; preds = %if.end58
  %32 = load ptr, ptr %cb.addr, align 8
  %call64 = call i32 @BN_GENCB_call(ptr noundef %32, i32 noundef 3, i32 noundef 0)
  %tobool65 = icmp ne i32 %call64, 0
  br i1 %tobool65, label %if.end67, label %if.then66

if.then66:                                        ; preds = %if.end63
  br label %err

if.end67:                                         ; preds = %if.end63
  %33 = load ptr, ptr %dh.addr, align 8
  %g68 = getelementptr inbounds %struct.dh_st, ptr %33, i32 0, i32 1
  %34 = load ptr, ptr %g68, align 8
  %35 = load i32, ptr %g, align 4
  %conv = sext i32 %35 to i64
  %call69 = call i32 @BN_set_word(ptr noundef %34, i64 noundef %conv)
  %tobool70 = icmp ne i32 %call69, 0
  br i1 %tobool70, label %if.end72, label %if.then71

if.then71:                                        ; preds = %if.end67
  br label %err

if.end72:                                         ; preds = %if.end67
  store i32 1, ptr %ok, align 4
  br label %err

err:                                              ; preds = %if.end72, %if.then71, %if.then66, %if.then62, %if.then55, %if.then51, %if.then46, %if.then42, %if.then36, %if.then32, %if.then27, %if.then23, %if.then13, %if.then5, %if.then
  %36 = load i32, ptr %ok, align 4
  %tobool73 = icmp ne i32 %36, 0
  br i1 %tobool73, label %if.end75, label %if.then74

if.then74:                                        ; preds = %err
  call void @ERR_put_error(i32 noundef 5, i32 noundef 0, i32 noundef 3, ptr noundef @.str, i32 noundef 224)
  br label %if.end75

if.end75:                                         ; preds = %if.then74, %err
  %37 = load ptr, ptr %ctx, align 8
  %cmp76 = icmp ne ptr %37, null
  br i1 %cmp76, label %if.then78, label %if.end79

if.then78:                                        ; preds = %if.end75
  %38 = load ptr, ptr %ctx, align 8
  call void @BN_CTX_end(ptr noundef %38)
  %39 = load ptr, ptr %ctx, align 8
  call void @BN_CTX_free(ptr noundef %39)
  br label %if.end79

if.end79:                                         ; preds = %if.then78, %if.end75
  %40 = load i32, ptr %ok, align 4
  ret i32 %40
}