; Function Attrs: nounwind uwtable
define hidden range(i32 0, 2) i32 @DH_generate_parameters_ex(ptr noundef captures(none) %dh, i32 noundef %prime_bits, i32 noundef %generator, ptr noundef %cb) local_unnamed_addr #0 {
entry:
  %call = tail call ptr @BN_CTX_new() #4
  %cmp = icmp eq ptr %call, null
  br i1 %cmp, label %if.end75, label %if.end

if.end:                                           ; preds = %entry
  tail call void @BN_CTX_start(ptr noundef nonnull %call) #4
  %call1 = tail call ptr @BN_CTX_get(ptr noundef nonnull %call) #4
  %call2 = tail call ptr @BN_CTX_get(ptr noundef nonnull %call) #4
  %cmp3 = icmp eq ptr %call1, null
  %cmp4 = icmp eq ptr %call2, null
  %or.cond = select i1 %cmp3, i1 true, i1 %cmp4
  br i1 %or.cond, label %if.then78.sink.split, label %if.end6

if.end6:                                          ; preds = %if.end
  %0 = load ptr, ptr %dh, align 8
  %cmp7 = icmp eq ptr %0, null
  br i1 %cmp7, label %if.then8, label %if.end15

if.then8:                                         ; preds = %if.end6
  %call9 = tail call ptr @BN_new() #4
  store ptr %call9, ptr %dh, align 8
  %cmp12 = icmp eq ptr %call9, null
  br i1 %cmp12, label %if.then78.sink.split, label %if.end15

if.end15:                                         ; preds = %if.then8, %if.end6
  %g16 = getelementptr inbounds nuw i8, ptr %dh, i64 8
  %1 = load ptr, ptr %g16, align 8
  %cmp17 = icmp eq ptr %1, null
  br i1 %cmp17, label %if.then18, label %if.end25

if.then18:                                        ; preds = %if.end15
  %call19 = tail call ptr @BN_new() #4
  store ptr %call19, ptr %g16, align 8
  %cmp22 = icmp eq ptr %call19, null
  br i1 %cmp22, label %if.then78.sink.split, label %if.end25

if.end25:                                         ; preds = %if.then18, %if.end15
  %cmp26 = icmp slt i32 %generator, 2
  br i1 %cmp26, label %if.then27, label %if.end28

if.then27:                                        ; preds = %if.end25
  tail call void @ERR_put_error(i32 noundef 5, i32 noundef 0, i32 noundef 100, ptr noundef nonnull @.str, i32 noundef 176) #4
  br label %if.then78.sink.split

if.end28:                                         ; preds = %if.end25
  switch i32 %generator, label %if.else48 [
    i32 2, label %if.then30
    i32 5, label %if.then39
  ]

if.then30:                                        ; preds = %if.end28
  %call31 = tail call i32 @BN_set_word(ptr noundef nonnull %call1, i64 noundef 24) #4
  %tobool.not = icmp eq i32 %call31, 0
  br i1 %tobool.not, label %if.then78.sink.split, label %if.end33

if.end33:                                         ; preds = %if.then30
  %call34 = tail call i32 @BN_set_word(ptr noundef nonnull %call2, i64 noundef 11) #4
  %tobool35.not = icmp eq i32 %call34, 0
  br i1 %tobool35.not, label %if.then78.sink.split, label %if.end58

if.then39:                                        ; preds = %if.end28
  %call40 = tail call i32 @BN_set_word(ptr noundef nonnull %call1, i64 noundef 10) #4
  %tobool41.not = icmp eq i32 %call40, 0
  br i1 %tobool41.not, label %if.then78.sink.split, label %if.end43

if.end43:                                         ; preds = %if.then39
  %call44 = tail call i32 @BN_set_word(ptr noundef nonnull %call2, i64 noundef 3) #4
  %tobool45.not = icmp eq i32 %call44, 0
  br i1 %tobool45.not, label %if.then78.sink.split, label %if.end58

if.else48:                                        ; preds = %if.end28
  %call49 = tail call i32 @BN_set_word(ptr noundef nonnull %call1, i64 noundef 2) #4
  %tobool50.not = icmp eq i32 %call49, 0
  br i1 %tobool50.not, label %if.then78.sink.split, label %if.end52

if.end52:                                         ; preds = %if.else48
  %call53 = tail call i32 @BN_set_word(ptr noundef nonnull %call2, i64 noundef 1) #4
  %tobool54.not = icmp eq i32 %call53, 0
  br i1 %tobool54.not, label %if.then78.sink.split, label %if.end56

if.end56:                                         ; preds = %if.end52
  %2 = zext nneg i32 %generator to i64
  br label %if.end58

if.end58:                                         ; preds = %if.end43, %if.end33, %if.end56
  %g.0 = phi i64 [ %2, %if.end56 ], [ 2, %if.end33 ], [ 5, %if.end43 ]
  %3 = load ptr, ptr %dh, align 8
  %call60 = tail call i32 @BN_generate_prime_ex(ptr noundef %3, i32 noundef %prime_bits, i32 noundef 1, ptr noundef nonnull %call1, ptr noundef nonnull %call2, ptr noundef %cb) #4
  %tobool61.not = icmp eq i32 %call60, 0
  br i1 %tobool61.not, label %if.then78.sink.split, label %if.end63

if.end63:                                         ; preds = %if.end58
  %call64 = tail call i32 @BN_GENCB_call(ptr noundef %cb, i32 noundef 3, i32 noundef 0) #4
  %tobool65.not = icmp eq i32 %call64, 0
  br i1 %tobool65.not, label %if.then78.sink.split, label %err

err:                                              ; preds = %if.end63
  %4 = load ptr, ptr %g16, align 8
  %call69 = tail call i32 @BN_set_word(ptr noundef %4, i64 noundef %g.0) #4
  %tobool70.not = icmp eq i32 %call69, 0
  br i1 %tobool70.not, label %if.then78.sink.split, label %if.then78

if.end75:                                         ; preds = %entry
  tail call void @ERR_put_error(i32 noundef 5, i32 noundef 0, i32 noundef 3, ptr noundef nonnull @.str, i32 noundef 224) #4
  br label %if.end79

if.then78.sink.split:                             ; preds = %if.else48, %if.end52, %if.then39, %if.end43, %if.then30, %if.end33, %if.end58, %if.end63, %if.then27, %if.then18, %if.then8, %if.end, %err
  tail call void @ERR_put_error(i32 noundef 5, i32 noundef 0, i32 noundef 3, ptr noundef nonnull @.str, i32 noundef 224) #4
  br label %if.then78

if.then78:                                        ; preds = %if.then78.sink.split, %err
  %ok.03033 = phi i32 [ 1, %err ], [ 0, %if.then78.sink.split ]
  tail call void @BN_CTX_end(ptr noundef nonnull %call) #4
  tail call void @BN_CTX_free(ptr noundef nonnull %call) #4
  br label %if.end79

if.end79:                                         ; preds = %if.end75, %if.then78
  %ok.03034 = phi i32 [ %ok.03033, %if.then78 ], [ 0, %if.end75 ]
  ret i32 %ok.03034
}